; Function Attrs: mustprogress uwtable
define dso_local noundef zeroext i16 @_ZN17FileLineSingleton17defaultMsgEnIndexEv(ptr noundef nonnull align 8 dereferenceable(328) %0) #3 align 2 {
  %2 = alloca %"class.std::bitset", align 8
  %3 = alloca %class.V3ErrorCode, align 1
  call void @llvm.memset.p0.i64(ptr noundef nonnull align 8 dereferenceable(16) %2, i8 0, i64 16, i1 false)
  br label %4

4:                                                ; preds = %1, %_ZNSt6bitsetILm119EE3setEmb.exit
  %indvars.iv = phi i64 [ 0, %1 ], [ %indvars.iv.next, %_ZNSt6bitsetILm119EE3setEmb.exit ]
  %5 = trunc i64 %indvars.iv to i8
  store i8 %5, ptr %3, align 1
  switch i8 %5, label %_ZNKSt6bitsetILm119EE8_M_checkEmPKc.exit.i [
    i8 54, label %_ZNKSt6bitsetILm119EE8_M_checkEmPKc.exit.i.thread
    i8 7, label %_ZNKSt6bitsetILm119EE8_M_checkEmPKc.exit.i.thread
  ]

_ZNKSt6bitsetILm119EE8_M_checkEmPKc.exit.i.thread: ; preds = %4, %4
  %6 = and i64 %indvars.iv, 63
  %7 = shl nuw i64 1, %6
  br label %16

_ZNKSt6bitsetILm119EE8_M_checkEmPKc.exit.i:       ; preds = %4
  %8 = call noundef zeroext i1 @_ZNK11V3ErrorCode10styleErrorEv(ptr noundef nonnull align 1 dereferenceable(1) %3)
  %9 = and i64 %indvars.iv, 63
  %10 = shl nuw i64 1, %9
  br i1 %8, label %16, label %11

11:                                               ; preds = %_ZNKSt6bitsetILm119EE8_M_checkEmPKc.exit.i
  %12 = lshr i64 %indvars.iv, 6
  %13 = getelementptr inbounds [2 x i64], ptr %2, i64 0, i64 %12
  %14 = load i64, ptr %13, align 8
  %15 = or i64 %14, %10
  store i64 %15, ptr %13, align 8
  br label %_ZNSt6bitsetILm119EE3setEmb.exit

16:                                               ; preds = %_ZNKSt6bitsetILm119EE8_M_checkEmPKc.exit.i.thread, %_ZNKSt6bitsetILm119EE8_M_checkEmPKc.exit.i
  %17 = phi i64 [ %7, %_ZNKSt6bitsetILm119EE8_M_checkEmPKc.exit.i.thread ], [ %10, %_ZNKSt6bitsetILm119EE8_M_checkEmPKc.exit.i ]
  %18 = xor i64 %17, -1
  %19 = lshr i64 %indvars.iv, 6
  %20 = getelementptr inbounds [2 x i64], ptr %2, i64 0, i64 %19
  %21 = load i64, ptr %20, align 8
  %22 = and i64 %21, %18
  store i64 %22, ptr %20, align 8
  br label %_ZNSt6bitsetILm119EE3setEmb.exit

_ZNSt6bitsetILm119EE3setEmb.exit:                 ; preds = %11, %16
  %indvars.iv.next = add nuw nsw i64 %indvars.iv, 1
  %exitcond.not = icmp eq i64 %indvars.iv.next, 119
  br i1 %exitcond.not, label %23, label %4, !llvm.loop !21

23:                                               ; preds = %_ZNSt6bitsetILm119EE3setEmb.exit
  %24 = call noundef zeroext i16 @_ZN17FileLineSingleton14addMsgEnBitSetERKSt6bitsetILm119EE(ptr noundef nonnull align 8 dereferenceable(328) %0, ptr noundef nonnull align 8 dereferenceable(16) %2)
  ret i16 %24
}